(lp1
V.
aV\u0a9b\u0ac7
p2
aV,
aV\u0a85\u0aa8\u0ac7
p3
aV\u0a86
aV\u0aaa\u0aa3
p4
aV-
aV\u0a95\u0ac7
p5
aV\u0aae\u0abe\u0a9f\u0ac7
p6
aV\u0a9c
aV\u0a8f\u0a95
p7
aV\u0aaa\u0ab0
p8
aV\u0ab9\u0acb\u0aaf
p9
aV\u0a9c\u0abe\u0aaf
p10
aV\u0aa4\u0acb
p11
aV\u0aa5\u0a88
p12
aV\u0aa5\u0abe\u0aaf
p13
aV`
aV\u0a86\u0ab5\u0ac7
p14
aV\u0ab5\u0aa7\u0abe\u0ab0\u0ac7
p15
aV\u0ab8\u0abe\u0aa5\u0ac7
p16
aV\u0a95\u0ab0\u0ac0
p17
aV\u0aa8\u0aa5\u0ac0
p18
aV\u0a9c\u0ac7
p19
aV\u0ab8\u0ac1\u0aa7\u0ac0
p20
aV\u0ab6\u0a95\u0ac7
p21
aV\u0aaa\u0a9b\u0ac0
p22
aV\u0a95\u0ab0\u0ac7
p23
aV(
aV\u0a85\u0ab9\u0ac0\u0a82
p24
aV\u0a8f
aV)
aV\u0a95\u0acb\u0a88
p25
aV\u0aa4\u0aa5\u0abe
p26
aV\u0ab0\u0ac0\u0aa4\u0ac7
p27
aV\u0aa6\u0ac2\u0ab0
p28
aV\u0a95\u0abe\u0ab0\u0aa3\u0ac7
p29
aV\u0a9c\u0acb
p30
aV\u0a95\u0ab0\u0ab5\u0abe\u0aae\u0abe\u0a82
p31
aV\u0a86\u0ab5\u0ac7\u0ab2
p32
aV\u0ab0\u0ab9\u0ac7
p33
aV\u0ab6\u0a95\u0abe\u0aaf
p34
aV\u0ab0\u0acb\u0a97
p35
aV\u0aa4\u0aae\u0ac7
p36
aV\u0aa8
aV\u0a85\u0aa5\u0ab5\u0abe
p37
aV\u0aa4\u0ac7\u0aae\u0a9c
p38
aV\u0a96\u0ac2\u0aac
p39
aV\u0aa4\u0ac7
p40
aV\u0aa6\u0acd\u0ab5\u0abe\u0ab0\u0abe
p41
a.